; Function Attrs: mustprogress uwtable
define void @_ZN3gmx16HardwareTopologyC2Ei(ptr noundef nonnull align 8 dereferenceable(228) initializes((0, 4)) %0, i32 noundef %1) unnamed_addr #0 align 2 {
  store i32 1, ptr %0, align 8, !tbaa !4
  %3 = getelementptr inbounds nuw i8, ptr %0, i64 8
  tail call void @_ZN3gmx16HardwareTopology7MachineC1Ev(ptr noundef nonnull align 8 dereferenceable(208) %3)
  %4 = getelementptr inbounds nuw i8, ptr %0, i64 216
  store i8 0, ptr %4, align 8, !tbaa !345
  %5 = getelementptr inbounds nuw i8, ptr %0, i64 220
  %6 = sitofp i32 %1 to float
  store float %6, ptr %5, align 4, !tbaa !80
  %7 = getelementptr inbounds nuw i8, ptr %0, i64 224
  store i32 %1, ptr %7, align 8, !tbaa !83
  %8 = icmp slt i32 %1, 1
  br i1 %8, label %9, label %10

9:                                                ; preds = %2
  store float -1.000000e+00, ptr %5, align 4, !tbaa !80
  store i32 0, ptr %0, align 8, !tbaa !4
  br label %10

10:                                               ; preds = %9, %2
  ret void
}